target datalayout = "e-m:e-p270:32:32-p271:32:32-p272:64:64-i64:64-i128:128-f80:128-n8:16:32:64-S128"
target triple = "x86_64-pc-linux-gnu"

%struct.job_record = type { i32, ptr, ptr, ptr, ptr, i16, i32, i32, i32, ptr, i32, ptr, ptr, i16, ptr, double, i64, ptr, ptr, ptr, ptr, ptr, ptr, i32, ptr, i32, i64, i64, i32, i32, ptr, i16, i64, i64, i8, i32, ptr, ptr, ptr, ptr, ptr, ptr, ptr, ptr, i32, ptr, ptr, i32, ptr, i32, ptr, i32, ptr, i32, ptr, ptr, ptr, ptr, ptr, ptr, i32, i16, i64, ptr, ptr, ptr, ptr, %struct.acct_policy_limit_set_t, i16, ptr, ptr, ptr, ptr, ptr, i32, ptr, ptr, ptr, ptr, ptr, i32, i32, ptr, ptr, ptr, i16, ptr, ptr, i8, ptr, ptr, i64, i64, i8, i32, i32, i8, i32, ptr, i32, i64, i32, ptr, ptr, ptr, i8, i16, i64, i32, ptr, ptr, ptr, ptr, ptr, i16, i32, ptr, ptr, ptr, ptr, i32, ptr, i32, i16, i64, ptr, i32, i32, ptr, i64, ptr, ptr, i64, i32, i32, i64, i32, i32, ptr, ptr, ptr, ptr, ptr, ptr, ptr, ptr, ptr, ptr, ptr, ptr, i32, ptr, i16, i16, i16, i16, ptr, i32, i32, i8, i64 }
%struct.acct_policy_limit_set_t = type { i16, i16, ptr }
%struct.job_resources = type { ptr, ptr, i32, ptr, ptr, ptr, ptr, ptr, i16, ptr, ptr, i32, i32, ptr, i32, ptr, i32, ptr, ptr, ptr, i16, i8 }

@.str.45 = private unnamed_addr constant [36 x i8] c"%s: %pJ lacks allocated node bitmap\00", align 1
@__func__._rm_usage_node_bitmap = private unnamed_addr constant [22 x i8] c"_rm_usage_node_bitmap\00", align 1
@.str.46 = private unnamed_addr constant [28 x i8] c"%s: grp_node_bitmap is NULL\00", align 1
@.str.47 = private unnamed_addr constant [29 x i8] c"%s: grp_node_job_cnt is NULL\00", align 1

; Function Attrs: nounwind uwtable
define internal void @_rm_usage_node_bitmap(ptr noundef %0, ptr noundef %1, ptr noundef %2, ptr noundef %3) #0 {
  %5 = alloca ptr, align 8
  %6 = alloca ptr, align 8
  %7 = alloca ptr, align 8
  %8 = alloca ptr, align 8
  %9 = alloca i32, align 4
  store ptr %0, ptr %5, align 8
  store ptr %1, ptr %6, align 8
  store ptr %2, ptr %7, align 8
  store ptr %3, ptr %8, align 8
  %10 = load ptr, ptr %5, align 8
  %11 = getelementptr inbounds nuw %struct.job_record, ptr %10, i32 0, i32 59
  %12 = load ptr, ptr %11, align 8
  %13 = icmp ne ptr %12, null
  br i1 %13, label %14, label %21

14:                                               ; preds = %4
  %15 = load ptr, ptr %5, align 8
  %16 = getelementptr inbounds nuw %struct.job_record, ptr %15, i32 0, i32 59
  %17 = load ptr, ptr %16, align 8
  %18 = getelementptr inbounds nuw %struct.job_resources, ptr %17, i32 0, i32 13
  %19 = load ptr, ptr %18, align 8
  %20 = icmp ne ptr %19, null
  br i1 %20, label %44, label %21

21:                                               ; preds = %14, %4
  %22 = load ptr, ptr %5, align 8
  %23 = getelementptr inbounds nuw %struct.job_record, ptr %22, i32 0, i32 60
  %24 = load i32, ptr %23, align 8
  %25 = and i32 %24, 255
  %26 = icmp eq i32 %25, 0
  br i1 %26, label %27, label %33

27:                                               ; preds = %21
  %28 = load ptr, ptr %5, align 8
  %29 = getelementptr inbounds nuw %struct.job_record, ptr %28, i32 0, i32 49
  %30 = load i32, ptr %29, align 8
  %31 = icmp ne i32 %30, 0
  br i1 %31, label %32, label %33

32:                                               ; preds = %27
  br label %43

33:                                               ; preds = %27, %21
  %34 = load ptr, ptr %5, align 8
  %35 = getelementptr inbounds nuw %struct.job_record, ptr %34, i32 0, i32 80
  %36 = load i32, ptr %35, align 8
  %37 = icmp eq i32 %36, 0
  br i1 %37, label %38, label %39

38:                                               ; preds = %33
  br label %42

39:                                               ; preds = %33
  %40 = load ptr, ptr %5, align 8
  %41 = call i32 (ptr, ...) @error(ptr noundef @.str.45, ptr noundef @__func__._rm_usage_node_bitmap, ptr noundef %40)
  br label %42

42:                                               ; preds = %39, %38
  br label %43

43:                                               ; preds = %42, %32
  br label %86

44:                                               ; preds = %14
  %45 = load ptr, ptr %6, align 8
  %46 = icmp ne ptr %45, null
  br i1 %46, label %49, label %47

47:                                               ; preds = %44
  %48 = call i32 (ptr, ...) @error(ptr noundef @.str.46, ptr noundef @__func__._rm_usage_node_bitmap)
  br label %86

49:                                               ; preds = %44
  %50 = load ptr, ptr %7, align 8
  %51 = icmp ne ptr %50, null
  br i1 %51, label %54, label %52

52:                                               ; preds = %49
  %53 = call i32 (ptr, ...) @error(ptr noundef @.str.47, ptr noundef @__func__._rm_usage_node_bitmap)
  br label %86

54:                                               ; preds = %49
  call void @llvm.lifetime.start.p0(i64 4, ptr %9) #8
  store i32 0, ptr %9, align 4
  br label %55

55:                                               ; preds = %78, %54
  %56 = load ptr, ptr %5, align 8
  %57 = getelementptr inbounds nuw %struct.job_record, ptr %56, i32 0, i32 59
  %58 = load ptr, ptr %57, align 8
  %59 = getelementptr inbounds nuw %struct.job_resources, ptr %58, i32 0, i32 13
  %60 = load ptr, ptr %59, align 8
  %61 = call ptr @next_node_bitmap(ptr noundef %60, ptr noundef %9)
  %62 = icmp ne ptr %61, null
  br i1 %62, label %64, label %63

63:                                               ; preds = %55
  call void @llvm.lifetime.end.p0(i64 4, ptr %9) #8
  br label %81

64:                                               ; preds = %55
  %65 = load ptr, ptr %7, align 8
  %66 = load i32, ptr %9, align 4
  %67 = sext i32 %66 to i64
  %68 = getelementptr inbounds i16, ptr %65, i64 %67
  %69 = load i16, ptr %68, align 2
  %70 = add i16 %69, -1
  store i16 %70, ptr %68, align 2
  %71 = zext i16 %70 to i32
  %72 = icmp eq i32 %71, 0
  br i1 %72, label %73, label %77

73:                                               ; preds = %64
  %74 = load ptr, ptr %6, align 8
  %75 = load i32, ptr %9, align 4
  %76 = sext i32 %75 to i64
  call void @bit_clear(ptr noundef %74, i64 noundef %76)
  br label %77

77:                                               ; preds = %73, %64
  br label %78

78:                                               ; preds = %77
  %79 = load i32, ptr %9, align 4
  %80 = add nsw i32 %79, 1
  store i32 %80, ptr %9, align 4
  br label %55, !llvm.loop !40

81:                                               ; preds = %63
  %82 = load ptr, ptr %6, align 8
  %83 = call i32 @bit_set_count(ptr noundef %82)
  %84 = sext i32 %83 to i64
  %85 = load ptr, ptr %8, align 8
  store i64 %84, ptr %85, align 8
  br label %86

86:                                               ; preds = %81, %52, %47, %43
  ret void
}