; Function Attrs: nounwind uwtable
define internal fastcc void @_rm_usage_node_bitmap(ptr noundef %0, ptr noundef %1, ptr noundef captures(address_is_null) %2, ptr noundef writeonly captures(none) %3) unnamed_addr #0 {
  %5 = alloca i32, align 4
  %6 = getelementptr inbounds nuw i8, ptr %0, i64 440
  %7 = load ptr, ptr %6, align 8
  %.not = icmp eq ptr %7, null
  br i1 %.not, label %11, label %8

8:                                                ; preds = %4
  %9 = getelementptr inbounds nuw i8, ptr %7, i64 96
  %10 = load ptr, ptr %9, align 8
  %.not15 = icmp eq ptr %10, null
  br i1 %.not15, label %11, label %25

11:                                               ; preds = %8, %4
  %12 = getelementptr inbounds nuw i8, ptr %0, i64 448
  %13 = load i32, ptr %12, align 8
  %14 = and i32 %13, 255
  %15 = icmp eq i32 %14, 0
  br i1 %15, label %16, label %19

16:                                               ; preds = %11
  %17 = getelementptr inbounds nuw i8, ptr %0, i64 360
  %18 = load i32, ptr %17, align 8
  %.not16 = icmp eq i32 %18, 0
  br i1 %.not16, label %19, label %49

19:                                               ; preds = %16, %11
  %20 = getelementptr inbounds nuw i8, ptr %0, i64 608
  %21 = load i32, ptr %20, align 8
  %22 = icmp eq i32 %21, 0
  br i1 %22, label %49, label %23

23:                                               ; preds = %19
  %24 = tail call i32 (ptr, ...) @error(ptr noundef nonnull @.str.45, ptr noundef nonnull @__func__._rm_usage_node_bitmap, ptr noundef nonnull %0) #15
  br label %49

25:                                               ; preds = %8
  %.not17 = icmp eq ptr %1, null
  br i1 %.not17, label %26, label %28

26:                                               ; preds = %25
  %27 = tail call i32 (ptr, ...) @error(ptr noundef nonnull @.str.46, ptr noundef nonnull @__func__._rm_usage_node_bitmap) #15
  br label %49

28:                                               ; preds = %25
  %.not18 = icmp eq ptr %2, null
  br i1 %.not18, label %29, label %31

29:                                               ; preds = %28
  %30 = tail call i32 (ptr, ...) @error(ptr noundef nonnull @.str.47, ptr noundef nonnull @__func__._rm_usage_node_bitmap) #15
  br label %49

31:                                               ; preds = %28
  call void @llvm.lifetime.start.p0(i64 4, ptr nonnull %5) #15
  store i32 0, ptr %5, align 4
  %32 = call ptr @next_node_bitmap(ptr noundef nonnull %10, ptr noundef nonnull %5) #15
  %.not1920 = icmp eq ptr %32, null
  br i1 %.not1920, label %._crit_edge, label %.lr.ph

._crit_edge:                                      ; preds = %42, %31
  call void @llvm.lifetime.end.p0(i64 4, ptr nonnull %5) #15
  %33 = call i32 @bit_set_count(ptr noundef nonnull %1) #15
  %34 = sext i32 %33 to i64
  store i64 %34, ptr %3, align 8
  br label %49

.lr.ph:                                           ; preds = %31, %42
  %35 = load i32, ptr %5, align 4
  %36 = sext i32 %35 to i64
  %37 = getelementptr inbounds i16, ptr %2, i64 %36
  %38 = load i16, ptr %37, align 2
  %39 = add i16 %38, -1
  store i16 %39, ptr %37, align 2
  %40 = icmp eq i16 %39, 0
  br i1 %40, label %41, label %42

41:                                               ; preds = %.lr.ph
  call void @bit_clear(ptr noundef nonnull %1, i64 noundef %36) #15
  %.pre = load i32, ptr %5, align 4
  br label %42

42:                                               ; preds = %.lr.ph, %41
  %43 = phi i32 [ %35, %.lr.ph ], [ %.pre, %41 ]
  %44 = add nsw i32 %43, 1
  store i32 %44, ptr %5, align 4
  %45 = load ptr, ptr %6, align 8
  %46 = getelementptr inbounds nuw i8, ptr %45, i64 96
  %47 = load ptr, ptr %46, align 8
  %48 = call ptr @next_node_bitmap(ptr noundef %47, ptr noundef nonnull %5) #15
  %.not19 = icmp eq ptr %48, null
  br i1 %.not19, label %._crit_edge, label %.lr.ph, !llvm.loop !44

49:                                               ; preds = %16, %19, %23, %._crit_edge, %29, %26
  ret void
}